Certificate:
    Data:
        Version: 3 (0x2)
        Serial Number: 4098 (0x1002)
        Signature Algorithm: sha256WithRSAEncryption
        Issuer: C=US, ST=California, O=Apache Software Foundation, OU=Pulsar, CN=admin/emailAddress=dev@pulsar.apache.org
        Validity
            Not Before: Dec 13 09:35:26 2024 GMT
            Not After : Feb  7 09:35:26 2041 GMT
        Subject: C=US, ST=California, O=Apache Software Foundation, OU=Pulsar, CN=chained-client/emailAddress=dev@pulsar.apache.org
        Subject Public Key Info:
            Public Key Algorithm: rsaEncryption
                RSA Public-Key: (2048 bit)
                Modulus:
                    00:b9:ff:10:7e:22:86:55:78:3b:c6:b1:c9:c4:35:
                    54:e9:52:7f:d5:a9:1b:78:82:59:fb:2f:0d:49:41:
                    a2:e0:9c:0b:03:d9:7c:89:85:ad:82:ec:7f:cf:b0:
                    61:31:e2:ce:1f:ad:8d:d2:af:43:06:76:5c:53:6e:
                    8a:3e:27:8b:0c:5c:4a:35:a0:33:bc:d0:f9:0d:c1:
                    4a:72:c9:0e:d5:d5:b2:8e:f1:11:d1:9c:6f:93:04:
                    9d:25:d6:7e:45:d4:72:ac:b9:d0:06:60:3e:3f:23:
                    11:75:63:19:18:c1:a8:f8:dc:f9:e1:c9:54:bc:cc:
                    0f:24:03:8a:13:e4:b6:a4:3a:14:a9:46:08:5d:97:
                    44:ac:f6:3f:74:d3:57:7c:78:d4:d5:f9:aa:81:24:
                    27:16:f9:64:dc:23:fc:30:a3:83:80:f4:08:b8:1f:
                    90:9d:aa:f5:c0:e9:fc:a9:8a:1b:df:9b:2c:14:27:
                    ef:70:53:f9:16:19:ae:4c:fe:d9:ed:eb:1a:fe:92:
                    59:5c:a7:f6:1d:99:b0:2a:f6:e4:23:ca:0c:f9:1b:
                    8c:2b:de:fb:a2:e0:f7:ac:bb:d3:d9:50:ca:e6:4e:
                    0e:b4:fe:b3:5c:e5:6f:95:8c:55:15:03:57:16:3e:
                    a5:1e:58:57:09:ab:8e:74:c1:c7:77:57:db:f1:26:
                    22:71
                Exponent: 65537 (0x10001)
        X509v3 extensions:
            X509v3 Basic Constraints: 
                CA:FALSE
            Netscape Comment: 
                OpenSSL Generated Certificate
            X509v3 Subject Key Identifier: 
                E8:5D:EF:38:B7:94:59:55:93:8A:15:14:70:31:09:57:28:99:7E:9E
            X509v3 Authority Key Identifier: 
                DirName:/C=US/ST=California/L=Palo Alto/O=Apache Software Foundation/OU=Pulsar/CN=Pulsar CA/emailAddress=dev@pulsar.apache.org
                serial:10:01

    Signature Algorithm: sha256WithRSAEncryption
         56:55:97:31:5e:66:c8:c2:dc:fd:fb:34:3d:f4:a6:6a:77:b3:
         41:56:6a:75:ce:a7:60:20:28:c0:6f:bf:cf:62:f0:a9:b9:f7:
         0e:46:eb:de:04:40:9f:48:8b:c4:9d:05:6e:46:a4:f9:80:22:
         18:0b:fd:c9:24:a7:12:d8:83:8b:b1:f9:5c:c5:af:b5:6e:a4:
         89:0e:54:01:5d:84:28:8d:17:3a:6a:e6:2e:d1:3f:db:30:99:
         0f:29:a8:06:9c:e0:bd:35:6e:8c:ca:0d:37:c6:4c:ef:3c:8a:
         ad:64:3e:ca:41:78:f7:2c:69:3f:be:0c:f3:21:eb:62:ad:83:
         db:23:2d:be:cc:57:5a:b0:71:49:05:ae:32:3c:03:2a:1e:02:
         74:05:2d:b8:4e:0c:49:1d:d8:2c:13:b0:f7:ae:c5:7d:46:ca:
         cc:8c:14:f2:f3:df:fe:65:a5:a3:f3:75:b7:4c:3d:21:57:e9:
         23:c6:c1:75:3f:f4:d4:1b:b8:8e:fb:64:a5:b9:b5:36:50:ef:
         67:55:73:4f:c5:dd:22:dd:27:fe:9e:9e:44:40:f2:3c:ff:c0:
         cb:e3:82:87:2b:f3:a6:a7:f2:13:ad:b4:d6:7d:f3:d9:74:d2:
         76:e9:60:01:d8:c2:39:8e:da:41:64:8f:7a:c2:b5:8b:10:ac:
         ee:e9:7a:95
-----BEGIN CERTIFICATE-----
MIIEwjCCA6qgAwIBAgICEAIwDQYJKoZIhvcNAQELBQAwgY4xCzAJBgNVBAYTAlVT
MRMwEQYDVQQIDApDYWxpZm9ybmlhMSMwIQYDVQQKDBpBcGFjaGUgU29mdHdhcmUg
Rm91bmRhdGlvbjEPMA0GA1UECwwGUHVsc2FyMQ4wDAYDVQQDDAVhZG1pbjEkMCIG
CSqGSIb3DQEJARYVZGV2QHB1bHNhci5hcGFjaGUub3JnMB4XDTI0MTIxMzA5MzUy
NloXDTQxMDIwNzA5MzUyNlowgZcxCzAJBgNVBAYTAlVTMRMwEQYDVQQIDApDYWxp
Zm9ybmlhMSMwIQYDVQQKDBpBcGFjaGUgU29mdHdhcmUgRm91bmRhdGlvbjEPMA0G
A1UECwwGUHVsc2FyMRcwFQYDVQQDDA5jaGFpbmVkLWNsaWVudDEkMCIGCSqGSIb3
DQEJARYVZGV2QHB1bHNhci5hcGFjaGUub3JnMIIBIjANBgkqhkiG9w0BAQEFAAOC
AQ8AMIIBCgKCAQEAuf8QfiKGVXg7xrHJxDVU6VJ/1akbeIJZ+y8NSUGi4JwLA9l8
iYWtgux/z7BhMeLOH62N0q9DBnZcU26KPieLDFxKNaAzvND5DcFKcskO1dWyjvER
0ZxvkwSdJdZ+RdRyrLnQBmA+PyMRdWMZGMGo+Nz54clUvMwPJAOKE+S2pDoUqUYI
XZdErPY/dNNXfHjU1fmqgSQnFvlk3CP8MKODgPQIuB+Qnar1wOn8qYob35ssFCfv
cFP5FhmuTP7Z7esa/pJZXKf2HZmwKvbkI8oM+RuMK977ouD3rLvT2VDK5k4OtP6z
XOVvlYxVFQNXFj6lHlhXCauOdMHHd1fb8SYicQIDAQABo4IBHTCCARkwCQYDVR0T
BAIwADAsBglghkgBhvhCAQ0EHxYdT3BlblNTTCBHZW5lcmF0ZWQgQ2VydGlmaWNh
dGUwHQYDVR0OBBYEFOhd7zi3lFlVk4oVFHAxCVcomX6eMIG+BgNVHSMEgbYwgbOh
gaykgakwgaYxCzAJBgNVBAYTAlVTMRMwEQYDVQQIDApDYWxpZm9ybmlhMRIwEAYD
VQQHDAlQYWxvIEFsdG8xIzAhBgNVBAoMGkFwYWNoZSBTb2Z0d2FyZSBGb3VuZGF0
aW9uMQ8wDQYDVQQLDAZQdWxzYXIxEjAQBgNVBAMMCVB1bHNhciBDQTEkMCIGCSqG
SIb3DQEJARYVZGV2QHB1bHNhci5hcGFjaGUub3JnggIQATANBgkqhkiG9w0BAQsF
AAOCAQEAVlWXMV5myMLc/fs0PfSmanezQVZqdc6nYCAowG+/z2Lwqbn3Dkbr3gRA
n0iLxJ0Fbkak+YAiGAv9ySSnEtiDi7H5XMWvtW6kiQ5UAV2EKI0XOmrmLtE/2zCZ
DymoBpzgvTVujMoNN8ZM7zyKrWQ+ykF49yxpP74M8yHrYq2D2yMtvsxXWrBxSQWu
MjwDKh4CdAUtuE4MSR3YLBOw967FfUbKzIwU8vPf/mWlo/N1t0w9IVfpI8bBdT/0
1Bu4jvtkpbm1NlDvZ1VzT8XdIt0n/p6eREDyPP/Ay+OChyvzpqfyE6201n3z2XTS
dulgAdjCOY7aQWSPesK1ixCs7ul6lQ==
-----END CERTIFICATE-----
